target datalayout = "e-m:e-p270:32:32-p271:32:32-p272:64:64-i64:64-i128:128-f80:128-n8:16:32:64-S128"
target triple = "x86_64-pc-linux-gnu"

%struct.asn1_type_st = type { i32, %union.anon.0 }
%union.anon.0 = type { ptr }
%struct.asn1_string_st = type { i32, i32, ptr, i64 }

; Function Attrs: nounwind uwtable
define internal ptr @ossl_ess_get_signing_cert_v2(ptr noundef %0) #0 {
  %2 = alloca ptr, align 8
  %3 = alloca ptr, align 8
  %4 = alloca ptr, align 8
  %5 = alloca ptr, align 8
  %6 = alloca i32, align 4
  store ptr %0, ptr %3, align 8, !tbaa !27
  call void @llvm.lifetime.start.p0(i64 8, ptr %4) #7
  call void @llvm.lifetime.start.p0(i64 8, ptr %5) #7
  %7 = load ptr, ptr %3, align 8, !tbaa !27
  %8 = call ptr @PKCS7_get_signed_attribute(ptr noundef %7, i32 noundef 1086)
  store ptr %8, ptr %4, align 8, !tbaa !91
  %9 = load ptr, ptr %4, align 8, !tbaa !91
  %10 = icmp eq ptr %9, null
  br i1 %10, label %11, label %12

11:                                               ; preds = %1
  store ptr null, ptr %2, align 8
  store i32 1, ptr %6, align 4
  br label %25

12:                                               ; preds = %1
  %13 = load ptr, ptr %4, align 8, !tbaa !91
  %14 = getelementptr inbounds nuw %struct.asn1_type_st, ptr %13, i32 0, i32 1
  %15 = load ptr, ptr %14, align 8, !tbaa !31
  %16 = getelementptr inbounds nuw %struct.asn1_string_st, ptr %15, i32 0, i32 2
  %17 = load ptr, ptr %16, align 8, !tbaa !93
  store ptr %17, ptr %5, align 8, !tbaa !64
  %18 = load ptr, ptr %4, align 8, !tbaa !91
  %19 = getelementptr inbounds nuw %struct.asn1_type_st, ptr %18, i32 0, i32 1
  %20 = load ptr, ptr %19, align 8, !tbaa !31
  %21 = getelementptr inbounds nuw %struct.asn1_string_st, ptr %20, i32 0, i32 0
  %22 = load i32, ptr %21, align 8, !tbaa !95
  %23 = sext i32 %22 to i64
  %24 = call ptr @d2i_ESS_SIGNING_CERT_V2(ptr noundef null, ptr noundef %5, i64 noundef %23)
  store ptr %24, ptr %2, align 8
  store i32 1, ptr %6, align 4
  br label %25

25:                                               ; preds = %12, %11
  call void @llvm.lifetime.end.p0(i64 8, ptr %5) #7
  call void @llvm.lifetime.end.p0(i64 8, ptr %4) #7
  %26 = load ptr, ptr %2, align 8
  ret ptr %26
}

; Function Attrs: nounwind uwtable
define internal ptr @ossl_ess_get_signing_cert(ptr noundef %0) #0 {
  %2 = alloca ptr, align 8
  %3 = alloca ptr, align 8
  %4 = alloca ptr, align 8
  %5 = alloca ptr, align 8
  %6 = alloca i32, align 4
  store ptr %0, ptr %3, align 8, !tbaa !27
  call void @llvm.lifetime.start.p0(i64 8, ptr %4) #7
  call void @llvm.lifetime.start.p0(i64 8, ptr %5) #7
  %7 = load ptr, ptr %3, align 8, !tbaa !27
  %8 = call ptr @PKCS7_get_signed_attribute(ptr noundef %7, i32 noundef 223)
  store ptr %8, ptr %4, align 8, !tbaa !91
  %9 = load ptr, ptr %4, align 8, !tbaa !91
  %10 = icmp eq ptr %9, null
  br i1 %10, label %11, label %12

11:                                               ; preds = %1
  store ptr null, ptr %2, align 8
  store i32 1, ptr %6, align 4
  br label %25

12:                                               ; preds = %1
  %13 = load ptr, ptr %4, align 8, !tbaa !91
  %14 = getelementptr inbounds nuw %struct.asn1_type_st, ptr %13, i32 0, i32 1
  %15 = load ptr, ptr %14, align 8, !tbaa !31
  %16 = getelementptr inbounds nuw %struct.asn1_string_st, ptr %15, i32 0, i32 2
  %17 = load ptr, ptr %16, align 8, !tbaa !93
  store ptr %17, ptr %5, align 8, !tbaa !64
  %18 = load ptr, ptr %4, align 8, !tbaa !91
  %19 = getelementptr inbounds nuw %struct.asn1_type_st, ptr %18, i32 0, i32 1
  %20 = load ptr, ptr %19, align 8, !tbaa !31
  %21 = getelementptr inbounds nuw %struct.asn1_string_st, ptr %20, i32 0, i32 0
  %22 = load i32, ptr %21, align 8, !tbaa !95
  %23 = sext i32 %22 to i64
  %24 = call ptr @d2i_ESS_SIGNING_CERT(ptr noundef null, ptr noundef %5, i64 noundef %23)
  store ptr %24, ptr %2, align 8
  store i32 1, ptr %6, align 4
  br label %25

25:                                               ; preds = %12, %11
  call void @llvm.lifetime.end.p0(i64 8, ptr %5) #7
  call void @llvm.lifetime.end.p0(i64 8, ptr %4) #7
  %26 = load ptr, ptr %2, align 8
  ret ptr %26
}

; Function Attrs: nounwind uwtable
define internal i32 @ts_check_signing_certs(ptr noundef %0, ptr noundef %1) #0 {
  %3 = alloca ptr, align 8
  %4 = alloca ptr, align 8
  %5 = alloca ptr, align 8
  %6 = alloca ptr, align 8
  %7 = alloca i32, align 4
  store ptr %0, ptr %3, align 8, !tbaa !27
  store ptr %1, ptr %4, align 8, !tbaa !8
  call void @llvm.lifetime.start.p0(i64 8, ptr %5) #7
  %8 = load ptr, ptr %3, align 8, !tbaa !27
  %9 = call ptr @ossl_ess_get_signing_cert(ptr noundef %8)
  store ptr %9, ptr %5, align 8, !tbaa !44
  call void @llvm.lifetime.start.p0(i64 8, ptr %6) #7
  %10 = load ptr, ptr %3, align 8, !tbaa !27
  %11 = call ptr @ossl_ess_get_signing_cert_v2(ptr noundef %10)
  store ptr %11, ptr %6, align 8, !tbaa !46
  call void @llvm.lifetime.start.p0(i64 4, ptr %7) #7
  %12 = load ptr, ptr %5, align 8, !tbaa !44
  %13 = load ptr, ptr %6, align 8, !tbaa !46
  %14 = load ptr, ptr %4, align 8, !tbaa !8
  %15 = call i32 @OSSL_ESS_check_signing_certs(ptr noundef %12, ptr noundef %13, ptr noundef %14, i32 noundef 1)
  %16 = icmp sgt i32 %15, 0
  %17 = zext i1 %16 to i32
  store i32 %17, ptr %7, align 4, !tbaa !16
  %18 = load ptr, ptr %5, align 8, !tbaa !44
  call void @ESS_SIGNING_CERT_free(ptr noundef %18)
  %19 = load ptr, ptr %6, align 8, !tbaa !46
  call void @ESS_SIGNING_CERT_V2_free(ptr noundef %19)
  %20 = load i32, ptr %7, align 4, !tbaa !16
  call void @llvm.lifetime.end.p0(i64 4, ptr %7) #7
  call void @llvm.lifetime.end.p0(i64 8, ptr %6) #7
  call void @llvm.lifetime.end.p0(i64 8, ptr %5) #7
  ret i32 %20
}