; Function Attrs: nounwind uwtable
define internal fastcc range(i32 0, 2) i32 @ts_check_signing_certs(ptr noundef %0, ptr noundef %1) unnamed_addr #0 {
  %3 = alloca ptr, align 8
  %4 = alloca ptr, align 8
  call void @llvm.lifetime.start.p0(i64 8, ptr nonnull %4) #7
  %5 = tail call ptr @PKCS7_get_signed_attribute(ptr noundef %0, i32 noundef 223) #7
  %6 = icmp eq ptr %5, null
  br i1 %6, label %ossl_ess_get_signing_cert.exit, label %7

7:                                                ; preds = %2
  %8 = getelementptr inbounds nuw i8, ptr %5, i64 8
  %9 = load ptr, ptr %8, align 8, !tbaa !14
  %10 = getelementptr inbounds nuw i8, ptr %9, i64 8
  %11 = load ptr, ptr %10, align 8, !tbaa !28
  store ptr %11, ptr %4, align 8, !tbaa !30
  %12 = load i32, ptr %9, align 8, !tbaa !31
  %13 = sext i32 %12 to i64
  %14 = call ptr @d2i_ESS_SIGNING_CERT(ptr noundef null, ptr noundef nonnull %4, i64 noundef %13) #7
  br label %ossl_ess_get_signing_cert.exit

ossl_ess_get_signing_cert.exit:                   ; preds = %2, %7
  %.0.i = phi ptr [ %14, %7 ], [ null, %2 ]
  call void @llvm.lifetime.end.p0(i64 8, ptr nonnull %4) #7
  call void @llvm.lifetime.start.p0(i64 8, ptr nonnull %3) #7
  %15 = call ptr @PKCS7_get_signed_attribute(ptr noundef %0, i32 noundef 1086) #7
  %16 = icmp eq ptr %15, null
  br i1 %16, label %ossl_ess_get_signing_cert_v2.exit, label %17

17:                                               ; preds = %ossl_ess_get_signing_cert.exit
  %18 = getelementptr inbounds nuw i8, ptr %15, i64 8
  %19 = load ptr, ptr %18, align 8, !tbaa !14
  %20 = getelementptr inbounds nuw i8, ptr %19, i64 8
  %21 = load ptr, ptr %20, align 8, !tbaa !28
  store ptr %21, ptr %3, align 8, !tbaa !30
  %22 = load i32, ptr %19, align 8, !tbaa !31
  %23 = sext i32 %22 to i64
  %24 = call ptr @d2i_ESS_SIGNING_CERT_V2(ptr noundef null, ptr noundef nonnull %3, i64 noundef %23) #7
  br label %ossl_ess_get_signing_cert_v2.exit

ossl_ess_get_signing_cert_v2.exit:                ; preds = %ossl_ess_get_signing_cert.exit, %17
  %.0.i7 = phi ptr [ %24, %17 ], [ null, %ossl_ess_get_signing_cert.exit ]
  call void @llvm.lifetime.end.p0(i64 8, ptr nonnull %3) #7
  %25 = call i32 @OSSL_ESS_check_signing_certs(ptr noundef %.0.i, ptr noundef %.0.i7, ptr noundef %1, i32 noundef 1) #7
  %26 = icmp sgt i32 %25, 0
  %27 = zext i1 %26 to i32
  call void @ESS_SIGNING_CERT_free(ptr noundef %.0.i) #7
  call void @ESS_SIGNING_CERT_V2_free(ptr noundef %.0.i7) #7
  ret i32 %27
}